; Function Attrs: mustprogress nofree norecurse nosync nounwind willreturn memory(argmem: readwrite) uwtable
define dso_local void @_ZN4llvm5dwarf14UnwindLocation23createAtDWARFExpressionENS_15DWARFExpressionE(ptr dead_on_unwind noalias writable writeonly sret(%"class.llvm::dwarf::UnwindLocation") align 8 captures(none) initializes((0, 12), (16, 17), (24, 57), (64, 65)) %0, ptr noundef readonly byval(%"class.llvm::DWARFExpression") align 8 captures(none) %1) local_unnamed_addr #2 align 2 {
  %3 = getelementptr inbounds nuw i8, ptr %0, i64 24
  call void @llvm.memcpy.p0.p0.i64(ptr noundef nonnull align 8 dereferenceable(32) %3, ptr noundef nonnull align 8 dereferenceable(32) %1, i64 32, i1 false)
  store i32 5, ptr %0, align 8
  %4 = getelementptr inbounds nuw i8, ptr %0, i64 4
  store i32 -1, ptr %4, align 4
  %5 = getelementptr inbounds nuw i8, ptr %0, i64 8
  store i32 0, ptr %5, align 8
  %6 = getelementptr inbounds nuw i8, ptr %0, i64 16
  store i8 0, ptr %6, align 8
  %7 = getelementptr inbounds nuw i8, ptr %0, i64 56
  store i8 1, ptr %7, align 8
  %8 = getelementptr inbounds nuw i8, ptr %0, i64 64
  store i8 1, ptr %8, align 8
  ret void
}